ccopy_reg
_reconstructor
p0
(csklearn.pipeline
Pipeline
p1
c__builtin__
object
p2
Ntp3
Rp4
(dp5
S'steps'
p6
(lp7
(S'min/max scaler'
p8
g0
(csklearn.preprocessing.data
MinMaxScaler
p9
g2
Ntp10
Rp11
(dp12
S'feature_range'
p13
(F0.0
F1.0
tp14
sS'scale_'
p15
cnumpy.core.multiarray
_reconstruct
p16
(cnumpy
ndarray
p17
(I0
tp18
S'b'
p19
tp20
Rp21
(I1
(I2
tp22
cnumpy
dtype
p23
(S'f8'
p24
I0
I1
tp25
Rp26
(I3
S'<'
p27
NNNI-1
I-1
I0
tp28
bI00
S'\xa7\xbf\xe2\x16\x83\xf4\t?[A\x7f\x98j\xb4\x13?'
p29
tp30
bsS'data_range'
p31
g16
(g17
(I0
tp32
g19
tp33
Rp34
(I1
(I2
tp35
g26
I00
S'\x98\xde\xfe\\\xf2\xb9\xd3@\x9f\xe8\xba\xf0\xcb\xfb\xc9@'
p36
tp37
bsS'data_min'
p38
g16
(g17
(I0
tp39
g19
tp40
Rp41
(I1
(I2
tp42
g26
I00
S'->\x05\xc0\xf8\x07s@\x1dt\t\x87\xde\x8e6@'
p43
tp44
bsS'min_'
p45
g16
(g17
(I0
tp46
g19
tp47
Rp48
(I1
(I2
tp49
g26
I00
S'\xdd\xcf\xf5)J\xdf\x8e\xbf\tOM\xd1\x05\xc8[\xbf'
p50
tp51
bsS'copy'
p52
I01
sbtp53
a(S'neural network'
p54
g0
(csknn.mlp
Regressor
p55
g2
Ntp56
Rp57
(dp58
S'regularize'
p59
NsS'dropout_rate'
p60
NsS'verbose'
p61
I01
sS'valid_set'
p62
NsS'loss_type'
p63
Vmse
p64
sS'learning_rate'
p65
F0.1
sS'batch_size'
p66
I10
sS'valid_size'
p67
F0.0
sS'mutator'
p68
NsS'learning_momentum'
p69
F0.9
sS'learning_rule'
p70
S'nesterov'
p71
sS'unit_counts'
p72
(lp73
I2
aI3
aI1
asS'weight_decay'
p74
NsS'layers'
p75
(lp76
g0
(csknn.nn
Layer
p77
g2
Ntp78
Rp79
(dp80
S'name'
p81
Vhidden0
p82
sS'dropout'
p83
NsS'pieces'
p84
NsS'units'
p85
I3
sg74
NsS'type'
p86
S'Sigmoid'
p87
sbag0
(g77
g2
Ntp88
Rp89
(dp90
g81
Voutput
p91
sg83
Nsg84
Nsg85
I1
sg74
Nsg86
g87
sbasS'n_iter'
p92
I25
sS'f_stable'
p93
F0.001
sS'n_stable'
p94
I50
sS'random_state'
p95
NsS'weights'
p96
(lp97
(g16
(g17
(I0
tp98
g19
tp99
Rp100
(I1
(I2
I3
tp101
g26
I00
S'B6\x00\xbf"\nJ\xc00u\x80\xcc<\x12f\xc0\xa8\x8a\x87)\x1a\xcd\xdc?\xd9\xaf\xe1\x9d\x12\xec2\xc0\xf8g\xb1\x93WJK@\xcc\'\xa4\t\xdc\xd6\xf9\xbf'
p102
tp103
bg16
(g17
(I0
tp104
g19
tp105
Rp106
(I1
(I3
tp107
g26
I00
S'\xf7\xf9Z\xfa\x15\x0e\xe6\xbf\x15\x82K\\\xda\x87\x12@2-\xacUx}\x1f\xc0'
p108
tp109
btp110
a(g16
(g17
(I0
tp111
g19
tp112
Rp113
(I1
(I3
I1
tp114
g26
I00
S'\x98\x02P\x19\xcaN\x1e\xc0\xf7S;d\xadh\x19\xc0\xcd\xf1y\xcen\x86\xe9\xbf'
p115
tp116
bg16
(g17
(I0
tp117
g19
tp118
Rp119
(I1
(I1
tp120
g26
I00
S'\xd1\x86i|\xe7\x13\x03@'
p121
tp122
btp123
asS'debug'
p124
I00
sbtp125
asS'named_steps'
p126
(dp127
g8
g11
sg54
g57
ssb.