ccopy_reg
_reconstructor
p0
(csklearn.pipeline
Pipeline
p1
c__builtin__
object
p2
Ntp3
Rp4
(dp5
S'steps'
p6
(lp7
(S'min/max scaler'
p8
g0
(csklearn.preprocessing.data
MinMaxScaler
p9
g2
Ntp10
Rp11
(dp12
S'feature_range'
p13
(F0.0
F1.0
tp14
sS'scale_'
p15
cnumpy.core.multiarray
_reconstruct
p16
(cnumpy
ndarray
p17
(I0
tp18
S'b'
p19
tp20
Rp21
(I1
(I2
tp22
cnumpy
dtype
p23
(S'f8'
p24
I0
I1
tp25
Rp26
(I3
S'<'
p27
NNNI-1
I-1
I0
tp28
bI00
S'Z\x99\xf3\x13\x07\x00\xc0?UUUUUU\xd5?'
p29
tp30
bsS'data_range'
p31
g16
(g17
(I0
tp32
g19
tp33
Rp34
(I1
(I2
tp35
g26
I00
S'f\x10\x1f\xd8\xf1\xff\x1f@\x00\x00\x00\x00\x00\x00\x08@'
p36
tp37
bsS'data_min'
p38
g16
(g17
(I0
tp39
g19
tp40
Rp41
(I1
(I2
tp42
g26
I00
S'\x00\xc63h\xe8\xff\x0f\xc0\x00\x00\x00\x00\x00\x00\xf0\xbf'
p43
tp44
bsS'min_'
p45
g16
(g17
(I0
tp46
g19
tp47
Rp48
(I1
(I2
tp49
g26
I00
S'\xdf\x88\x10\x90\xf6\xff\xdf?UUUUUU\xd5?'
p50
tp51
bsS'copy'
p52
I01
sbtp53
a(S'neural network'
p54
g0
(csknn.mlp
Regressor
p55
g2
Ntp56
Rp57
(dp58
S'regularize'
p59
NsS'dropout_rate'
p60
NsS'verbose'
p61
I01
sS'valid_set'
p62
NsS'loss_type'
p63
Vmse
p64
sS'learning_rate'
p65
F0.01
sS'batch_size'
p66
I1
sS'valid_size'
p67
F0.0
sS'mutator'
p68
NsS'learning_momentum'
p69
F0.9
sS'learning_rule'
p70
Vsgd
p71
sS'unit_counts'
p72
(lp73
I2
aI3
aI1
asS'weight_decay'
p74
NsS'layers'
p75
(lp76
g0
(csknn.nn
Layer
p77
g2
Ntp78
Rp79
(dp80
S'name'
p81
Vhidden0
p82
sS'dropout'
p83
NsS'pieces'
p84
NsS'units'
p85
I3
sg74
NsS'type'
p86
S'Sigmoid'
p87
sbag0
(g77
g2
Ntp88
Rp89
(dp90
g81
Voutput
p91
sg83
Nsg84
Nsg85
I1
sg74
Nsg86
S'Linear'
p92
sbasS'n_iter'
p93
I50
sS'f_stable'
p94
F0.001
sS'n_stable'
p95
I50
sS'random_state'
p96
NsS'weights'
p97
(lp98
(g16
(g17
(I0
tp99
g19
tp100
Rp101
(I1
(I2
I3
tp102
g26
I00
S"\x8dU\xac\xfdI\x95)@k=:\xedm\x0c;\xc0\xaa0\xd0\xba'\x12B@B\xf1\x02\xd3U?\x13\xc0\x98\x06\xd2J-M$@hb\x02\x9a\x10%+\xc0"
p103
tp104
bg16
(g17
(I0
tp105
g19
tp106
Rp107
(I1
(I3
tp108
g26
I00
S"\xa8]\xfbo\xfc\x14\x1a\xc0/)\x1d)\xba\xef'@\xd9('\xfb\x8f\xc9&\xc0"
p109
tp110
btp111
a(g16
(g17
(I0
tp112
g19
tp113
Rp114
(I1
(I3
I1
tp115
g26
I00
S'\xad\xd0>\xda\xddH\xd9?\xba;<\xb3\x90(\xfa?\xfd0\xb9\xc9\xdd\xff\xf3?'
p116
tp117
bg16
(g17
(I0
tp118
g19
tp119
Rp120
(I1
(I1
tp121
g26
I00
S'\x8c\xee\x85\xe14Q\xfa\xbf'
p122
tp123
btp124
asS'debug'
p125
I00
sbtp126
asS'named_steps'
p127
(dp128
g8
g11
sg54
g57
ssb.