ccopy_reg
_reconstructor
p0
(csknn.mlp
Regressor
p1
c__builtin__
object
p2
Ntp3
Rp4
(dp5
S'regularize'
p6
NsS'dropout_rate'
p7
NsS'verbose'
p8
NsS'valid_set'
p9
NsS'loss_type'
p10
Vmse
p11
sS'learning_rate'
p12
F0.02
sS'batch_size'
p13
I1
sS'valid_size'
p14
F0.0
sS'mutator'
p15
NsS'learning_momentum'
p16
F0.9
sS'learning_rule'
p17
Vsgd
p18
sS'unit_counts'
p19
(lp20
I1
aI2
aI1
asS'weight_decay'
p21
NsS'layers'
p22
(lp23
g0
(csknn.nn
Layer
p24
g2
Ntp25
Rp26
(dp27
S'name'
p28
Vhidden0
p29
sS'dropout'
p30
NsS'pieces'
p31
NsS'units'
p32
I2
sg21
NsS'type'
p33
S'Sigmoid'
p34
sbag0
(g24
g2
Ntp35
Rp36
(dp37
g28
Voutput
p38
sg30
Nsg31
Nsg32
I1
sg21
Nsg33
g34
sbasS'n_iter'
p39
I10
sS'f_stable'
p40
F0.001
sS'n_stable'
p41
I50
sS'random_state'
p42
NsS'weights'
p43
(lp44
(cnumpy.core.multiarray
_reconstruct
p45
(cnumpy
ndarray
p46
(I0
tp47
S'b'
p48
tp49
Rp50
(I1
(I1
I2
tp51
cnumpy
dtype
p52
(S'f8'
p53
I0
I1
tp54
Rp55
(I3
S'<'
p56
NNNI-1
I-1
I0
tp57
bI00
S'\xfc\xe0\xbf\xa9:V\x05\xc0\xb4\x1a,F%@\t\xc0'
p58
tp59
bg45
(g46
(I0
tp60
g48
tp61
Rp62
(I1
(I2
tp63
g55
I00
S'c\x13\x1d\x0f\x19}\x1b@5\xc2\x9a#-a\r@'
p64
tp65
btp66
a(g45
(g46
(I0
tp67
g48
tp68
Rp69
(I1
(I2
I1
tp70
g55
I00
S'\x89\xae\x99!\xb1\xc2\x1c@\r\x81\xe1\xf5\xcd}"\xc0'
p71
tp72
bg45
(g46
(I0
tp73
g48
tp74
Rp75
(I1
(I1
tp76
g55
I00
S'2\x16\xb9\xe6\xb5/\r\xc0'
p77
tp78
btp79
asS'debug'
p80
I00
sb.